; Function Attrs: mustprogress nofree nounwind willreturn memory(read, inaccessiblemem: none) uwtable
define internal noundef zeroext i1 @"_ZNSt17_Function_handlerIFbRKNSt7__cxx1112basic_stringIcSt11char_traitsIcESaIcEEES7_EZN12_GLOBAL__N_122HandleTransformCommandERKSt6vectorIS5_SaIS5_EER17cmExecutionStatusE3$_0E9_M_invokeERKSt9_Any_dataS7_S7_"(ptr nonnull readnone align 8 captures(none) %0, ptr noundef nonnull readonly align 8 captures(none) dereferenceable(32) %1, ptr noundef nonnull readonly align 8 captures(none) dereferenceable(32) %2) #17 align 2 personality ptr @__gxx_personality_v0 {
  %4 = getelementptr inbounds nuw i8, ptr %1, i64 8
  %.val3 = load i64, ptr %4, align 8, !tbaa !19
  %5 = getelementptr inbounds nuw i8, ptr %2, i64 8
  %.val5 = load i64, ptr %5, align 8, !tbaa !19
  %.sroa.speculated.i.i.i.i.i = tail call i64 @llvm.umin.i64(i64 %.val5, i64 %.val3)
  %6 = icmp eq i64 %.sroa.speculated.i.i.i.i.i, 0
  br i1 %6, label %_ZNSt11char_traitsIcE7compareEPKcS2_m.exit.thread.i.i.i.i.i, label %_ZNSt11char_traitsIcE7compareEPKcS2_m.exit.i.i.i.i.i

_ZNSt11char_traitsIcE7compareEPKcS2_m.exit.i.i.i.i.i: ; preds = %3
  %.val4 = load ptr, ptr %2, align 8
  %.val = load ptr, ptr %1, align 8
  %7 = tail call i32 @memcmp(ptr noundef readonly %.val, ptr noundef readonly %.val4, i64 noundef %.sroa.speculated.i.i.i.i.i) #27
  %.not.i.i.i.i.i = icmp eq i32 %7, 0
  br i1 %.not.i.i.i.i.i, label %_ZNSt11char_traitsIcE7compareEPKcS2_m.exit.thread.i.i.i.i.i, label %"_ZSt10__invoke_rIbRZN12_GLOBAL__N_122HandleTransformCommandERKSt6vectorINSt7__cxx1112basic_stringIcSt11char_traitsIcESaIcEEESaIS7_EER17cmExecutionStatusE3$_0JRKS7_SH_EENSt9enable_ifIX16is_invocable_r_vIT_T0_DpT1_EESJ_E4typeEOSK_DpOSL_.exit"

_ZNSt11char_traitsIcE7compareEPKcS2_m.exit.thread.i.i.i.i.i: ; preds = %_ZNSt11char_traitsIcE7compareEPKcS2_m.exit.i.i.i.i.i, %3
  %8 = sub i64 %.val3, %.val5
  %spec.select7.i.i.i.i.i.i = tail call i64 @llvm.smax.i64(i64 %8, i64 -2147483648)
  %.08.i.i.i.i.i.i = tail call i64 @llvm.smin.i64(i64 %spec.select7.i.i.i.i.i.i, i64 2147483647)
  %.0.i6.i.i.i.i.i = trunc nsw i64 %.08.i.i.i.i.i.i to i32
  br label %"_ZSt10__invoke_rIbRZN12_GLOBAL__N_122HandleTransformCommandERKSt6vectorINSt7__cxx1112basic_stringIcSt11char_traitsIcESaIcEEESaIS7_EER17cmExecutionStatusE3$_0JRKS7_SH_EENSt9enable_ifIX16is_invocable_r_vIT_T0_DpT1_EESJ_E4typeEOSK_DpOSL_.exit"

"_ZSt10__invoke_rIbRZN12_GLOBAL__N_122HandleTransformCommandERKSt6vectorINSt7__cxx1112basic_stringIcSt11char_traitsIcESaIcEEESaIS7_EER17cmExecutionStatusE3$_0JRKS7_SH_EENSt9enable_ifIX16is_invocable_r_vIT_T0_DpT1_EESJ_E4typeEOSK_DpOSL_.exit": ; preds = %_ZNSt11char_traitsIcE7compareEPKcS2_m.exit.i.i.i.i.i, %_ZNSt11char_traitsIcE7compareEPKcS2_m.exit.thread.i.i.i.i.i
  %.0.i.i.i.i.i = phi i32 [ %7, %_ZNSt11char_traitsIcE7compareEPKcS2_m.exit.i.i.i.i.i ], [ %.0.i6.i.i.i.i.i, %_ZNSt11char_traitsIcE7compareEPKcS2_m.exit.thread.i.i.i.i.i ]
  %9 = icmp slt i32 %.0.i.i.i.i.i, 0
  ret i1 %9
}